; Function Attrs: mustprogress uwtable
define noundef i64 @_Z12strtol_checkRKNSt7__cxx1112basic_stringIcSt11char_traitsIcESaIcEEE(ptr noundef nonnull readonly align 8 captures(none) dereferenceable(32) %0) local_unnamed_addr #3 personality ptr @__gxx_personality_v0 {
  %2 = alloca ptr, align 8
  %3 = load ptr, ptr %0, align 8, !tbaa !6
  call void @llvm.lifetime.start.p0(i64 8, ptr nonnull %2) #22
  %4 = call i64 @strtol(ptr noundef %3, ptr noundef nonnull %2, i32 noundef 10) #22
  %5 = load ptr, ptr %2, align 8, !tbaa !14
  %6 = load i8, ptr %5, align 1, !tbaa !15
  %.not = icmp eq i8 %6, 0
  br i1 %.not, label %7, label %10

7:                                                ; preds = %1
  %8 = load i8, ptr %3, align 1, !tbaa !15
  %9 = icmp eq i8 %8, 0
  br i1 %9, label %10, label %15

10:                                               ; preds = %7, %1
  %11 = tail call noundef nonnull align 8 dereferenceable(8) ptr @_ZStlsISt11char_traitsIcEERSt13basic_ostreamIcT_ES5_PKc(ptr noundef nonnull align 8 dereferenceable(8) @_ZSt4cerr, ptr noundef nonnull @.str)
  %12 = tail call noundef nonnull align 8 dereferenceable(8) ptr @_ZStlsISt11char_traitsIcEERSt13basic_ostreamIcT_ES5_PKc(ptr noundef nonnull align 8 dereferenceable(8) %11, ptr noundef %3)
  %13 = tail call noundef nonnull align 8 dereferenceable(8) ptr @_ZStlsISt11char_traitsIcEERSt13basic_ostreamIcT_ES5_PKc(ptr noundef nonnull align 8 dereferenceable(8) %12, ptr noundef nonnull @.str.1)
  %14 = tail call noundef nonnull align 8 dereferenceable(8) ptr @_ZSt4endlIcSt11char_traitsIcEERSt13basic_ostreamIT_T0_ES6_(ptr noundef nonnull align 8 dereferenceable(8) %13)
  tail call void @exit(i32 noundef 1) #23
  unreachable

15:                                               ; preds = %7
  call void @llvm.lifetime.end.p0(i64 8, ptr nonnull %2) #22
  ret i64 %4
}